target datalayout = "e-m:e-p270:32:32-p271:32:32-p272:64:64-i64:64-i128:128-f80:128-n8:16:32:64-S128"
target triple = "x86_64-pc-linux-gnu"

%"class.clang::SourceLocation" = type { i32 }
%"class.clang::TypeLoc" = type { ptr, ptr }
%"class.clang::QualType" = type { %"class.llvm::PointerIntPair.164" }
%"class.llvm::PointerIntPair.164" = type { %"struct.llvm::detail::PunnedPointer.165" }
%"struct.llvm::detail::PunnedPointer.165" = type { [8 x i8] }
%"class.clang::SourceRange" = type { %"class.clang::SourceLocation", %"class.clang::SourceLocation" }
%"class.clang::TypeSourceInfo" = type { %"class.clang::QualType" }
%"class.clang::AttributeCommonInfo" = type { ptr, ptr, %"class.clang::SourceRange", %"class.clang::SourceLocation", i32 }
%"class.clang::InheritableAttr.base" = type { %"class.clang::Attr.base" }
%"class.clang::Attr.base" = type <{ %"class.clang::AttributeCommonInfo", i16, i8 }>
%"class.clang::AlignedAttr" = type { %"class.clang::InheritableAttr.base", i8, %union.anon.1619, %"class.std::optional.1620" }
%union.anon.1619 = type { ptr }
%"class.std::optional.1620" = type { %"struct.std::_Optional_base.1621" }
%"struct.std::_Optional_base.1621" = type { %"struct.std::_Optional_payload.1623" }
%"struct.std::_Optional_payload.1623" = type { %"struct.std::_Optional_payload_base.base.1625", [3 x i8] }
%"struct.std::_Optional_payload_base.base.1625" = type <{ %"union.std::_Optional_payload_base<unsigned int>::_Storage", i8 }>
%"union.std::_Optional_payload_base<unsigned int>::_Storage" = type { i32 }

; Function Attrs: mustprogress nounwind uwtable
define linkonce_odr hidden noundef i64 @_ZNK4llvm6detail13PunnedPointerINS_12PointerUnionIJPKN5clang4TypeEPKNS3_8ExtQualsEEEEE5asIntEv(ptr noundef nonnull align 8 dereferenceable(8) %0) #0 comdat align 2 {
  %2 = alloca ptr, align 8
  %3 = alloca i64, align 8
  store ptr %0, ptr %2, align 8
  %4 = load ptr, ptr %2, align 8
  store i64 0, ptr %3, align 8
  %5 = getelementptr inbounds nuw %"struct.llvm::detail::PunnedPointer.165", ptr %4, i32 0, i32 0
  %6 = getelementptr inbounds [8 x i8], ptr %5, i64 0, i64 0
  call void @llvm.memcpy.p0.p0.i64(ptr align 8 %3, ptr align 8 %6, i64 8, i1 false)
  %7 = load i64, ptr %3, align 8
  ret i64 %7
}

; Function Attrs: mustprogress nounwind uwtable
define linkonce_odr hidden noundef ptr @_ZNK4llvm14PointerIntPairINS_12PointerUnionIJPKN5clang4TypeEPKNS2_8ExtQualsEEEELj3EjNS_21PointerLikeTypeTraitsIS9_EENS_18PointerIntPairInfoIS9_Lj3ESB_EEE14getOpaqueValueEv(ptr noundef nonnull align 8 dereferenceable(8) %0) #0 comdat align 2 {
  %2 = alloca ptr, align 8
  store ptr %0, ptr %2, align 8
  %3 = load ptr, ptr %2, align 8
  %4 = getelementptr inbounds nuw %"class.llvm::PointerIntPair.164", ptr %3, i32 0, i32 0
  %5 = call noundef i64 @_ZNK4llvm6detail13PunnedPointerINS_12PointerUnionIJPKN5clang4TypeEPKNS3_8ExtQualsEEEEE5asIntEv(ptr noundef nonnull align 8 dereferenceable(8) %4)
  %6 = inttoptr i64 %5 to ptr
  ret ptr %6
}

; Function Attrs: mustprogress nounwind uwtable
define linkonce_odr hidden noundef ptr @_ZNK5clang8QualType14getAsOpaquePtrEv(ptr noundef nonnull align 8 dereferenceable(8) %0) #0 comdat align 2 {
  %2 = alloca ptr, align 8
  store ptr %0, ptr %2, align 8
  %3 = load ptr, ptr %2, align 8
  %4 = getelementptr inbounds nuw %"class.clang::QualType", ptr %3, i32 0, i32 0
  %5 = call noundef ptr @_ZNK4llvm14PointerIntPairINS_12PointerUnionIJPKN5clang4TypeEPKNS2_8ExtQualsEEEELj3EjNS_21PointerLikeTypeTraitsIS9_EENS_18PointerIntPairInfoIS9_Lj3ESB_EEE14getOpaqueValueEv(ptr noundef nonnull align 8 dereferenceable(8) %4)
  ret ptr %5
}

; Function Attrs: mustprogress nounwind uwtable
define linkonce_odr hidden void @_ZN5clang7TypeLocC2ENS_8QualTypeEPv(ptr noundef nonnull align 8 dereferenceable(16) %0, i64 %1, ptr noundef %2) unnamed_addr #0 comdat align 2 {
  %4 = alloca %"class.clang::QualType", align 8
  %5 = alloca ptr, align 8
  %6 = alloca ptr, align 8
  %7 = getelementptr inbounds nuw %"class.clang::QualType", ptr %4, i32 0, i32 0
  %8 = getelementptr inbounds nuw %"class.llvm::PointerIntPair.164", ptr %7, i32 0, i32 0
  %9 = getelementptr inbounds nuw %"struct.llvm::detail::PunnedPointer.165", ptr %8, i32 0, i32 0
  store i64 %1, ptr %9, align 8
  store ptr %0, ptr %5, align 8
  store ptr %2, ptr %6, align 8
  %10 = load ptr, ptr %5, align 8
  %11 = getelementptr inbounds nuw %"class.clang::TypeLoc", ptr %10, i32 0, i32 0
  %12 = call noundef ptr @_ZNK5clang8QualType14getAsOpaquePtrEv(ptr noundef nonnull align 8 dereferenceable(8) %4)
  store ptr %12, ptr %11, align 8
  %13 = getelementptr inbounds nuw %"class.clang::TypeLoc", ptr %10, i32 0, i32 1
  %14 = load ptr, ptr %6, align 8
  store ptr %14, ptr %13, align 8
  ret void
}

; Function Attrs: mustprogress nounwind uwtable
define linkonce_odr hidden { ptr, ptr } @_ZNK5clang14TypeSourceInfo10getTypeLocEv(ptr noundef nonnull align 8 dereferenceable(8) %0) #0 comdat align 2 {
  %2 = alloca %"class.clang::TypeLoc", align 8
  %3 = alloca ptr, align 8
  %4 = alloca %"class.clang::QualType", align 8
  store ptr %0, ptr %3, align 8
  %5 = load ptr, ptr %3, align 8
  %6 = getelementptr inbounds nuw %"class.clang::TypeSourceInfo", ptr %5, i32 0, i32 0
  call void @llvm.memcpy.p0.p0.i64(ptr align 8 %4, ptr align 8 %6, i64 8, i1 false)
  %7 = getelementptr inbounds %"class.clang::TypeSourceInfo", ptr %5, i64 1
  %8 = getelementptr inbounds nuw %"class.clang::QualType", ptr %4, i32 0, i32 0
  %9 = getelementptr inbounds nuw %"class.llvm::PointerIntPair.164", ptr %8, i32 0, i32 0
  %10 = getelementptr inbounds nuw %"struct.llvm::detail::PunnedPointer.165", ptr %9, i32 0, i32 0
  %11 = load i64, ptr %10, align 8
  call void @_ZN5clang7TypeLocC2ENS_8QualTypeEPv(ptr noundef nonnull align 8 dereferenceable(16) %2, i64 %11, ptr noundef %7)
  %12 = load { ptr, ptr }, ptr %2, align 8
  ret { ptr, ptr } %12
}

; Function Attrs: mustprogress nounwind uwtable
define linkonce_odr hidden noundef ptr @_ZNK5clang11AlignedAttr16getAlignmentTypeEv(ptr noundef nonnull align 8 dereferenceable(56) %0) #0 comdat align 2 {
  %2 = alloca ptr, align 8
  store ptr %0, ptr %2, align 8
  %3 = load ptr, ptr %2, align 8
  %4 = getelementptr inbounds nuw %"class.clang::AlignedAttr", ptr %3, i32 0, i32 2
  %5 = load ptr, ptr %4, align 8
  ret ptr %5
}

; Function Attrs: mustprogress nounwind uwtable
define linkonce_odr hidden noundef ptr @_ZNK5clang11AlignedAttr16getAlignmentExprEv(ptr noundef nonnull align 8 dereferenceable(56) %0) #0 comdat align 2 {
  %2 = alloca ptr, align 8
  store ptr %0, ptr %2, align 8
  %3 = load ptr, ptr %2, align 8
  %4 = getelementptr inbounds nuw %"class.clang::AlignedAttr", ptr %3, i32 0, i32 2
  %5 = load ptr, ptr %4, align 8
  ret ptr %5
}

; Function Attrs: mustprogress nounwind uwtable
define linkonce_odr hidden noundef zeroext i1 @_ZNK5clang11AlignedAttr15isAlignmentExprEv(ptr noundef nonnull align 8 dereferenceable(56) %0) #0 comdat align 2 {
  %2 = alloca ptr, align 8
  store ptr %0, ptr %2, align 8
  %3 = load ptr, ptr %2, align 8
  %4 = getelementptr inbounds nuw %"class.clang::AlignedAttr", ptr %3, i32 0, i32 1
  %5 = load i8, ptr %4, align 1
  %6 = trunc i8 %5 to i1
  ret i1 %6
}

; Function Attrs: mustprogress nounwind uwtable
define internal noundef zeroext i1 @_ZN5clang19RecursiveASTVisitorIZNK12_GLOBAL__N_125UncountedLocalVarsChecker12checkASTDeclEPKNS_19TranslationUnitDeclERNS_4ento15AnalysisManagerERNS6_11BugReporterEE12LocalVisitorE16VisitAlignedAttrEPNS_11AlignedAttrE(ptr noundef nonnull align 1 dereferenceable(1) %0, ptr noundef %1) #0 align 2 {
  %3 = alloca ptr, align 8
  %4 = alloca ptr, align 8
  store ptr %0, ptr %3, align 8
  store ptr %1, ptr %4, align 8
  ret i1 true
}

; Function Attrs: mustprogress nounwind uwtable
define internal noundef zeroext i1 @_ZN5clang19RecursiveASTVisitorIZNK12_GLOBAL__N_125UncountedLocalVarsChecker12checkASTDeclEPKNS_19TranslationUnitDeclERNS_4ento15AnalysisManagerERNS6_11BugReporterEE12LocalVisitorE9VisitAttrEPNS_4AttrE(ptr noundef nonnull align 1 dereferenceable(1) %0, ptr noundef %1) #0 align 2 {
  %3 = alloca ptr, align 8
  %4 = alloca ptr, align 8
  store ptr %0, ptr %3, align 8
  store ptr %1, ptr %4, align 8
  ret i1 true
}

; Function Attrs: mustprogress nounwind uwtable
define internal noundef nonnull align 8 dereferenceable(32) ptr @_ZN5clang19RecursiveASTVisitorIZNK12_GLOBAL__N_125UncountedLocalVarsChecker12checkASTDeclEPKNS_19TranslationUnitDeclERNS_4ento15AnalysisManagerERNS6_11BugReporterEE12LocalVisitorE10getDerivedEv(ptr noundef nonnull align 1 dereferenceable(1) %0) #0 align 2 {
  %2 = alloca ptr, align 8
  store ptr %0, ptr %2, align 8
  %3 = load ptr, ptr %2, align 8
  ret ptr %3
}

; Function Attrs: mustprogress nounwind uwtable
define internal noundef zeroext i1 @_ZN5clang19RecursiveASTVisitorIZNK12_GLOBAL__N_125UncountedLocalVarsChecker12checkASTDeclEPKNS_19TranslationUnitDeclERNS_4ento15AnalysisManagerERNS6_11BugReporterEE12LocalVisitorE19TraverseAlignedAttrEPNS_11AlignedAttrE(ptr noundef nonnull align 1 dereferenceable(1) %0, ptr noundef %1) #0 align 2 {
  %3 = alloca i1, align 1
  %4 = alloca ptr, align 8
  %5 = alloca ptr, align 8
  %6 = alloca ptr, align 8
  %7 = alloca %"class.clang::TypeLoc", align 8
  store ptr %0, ptr %4, align 8
  store ptr %1, ptr %5, align 8
  %8 = load ptr, ptr %4, align 8
  %9 = call noundef nonnull align 8 dereferenceable(32) ptr @_ZN5clang19RecursiveASTVisitorIZNK12_GLOBAL__N_125UncountedLocalVarsChecker12checkASTDeclEPKNS_19TranslationUnitDeclERNS_4ento15AnalysisManagerERNS6_11BugReporterEE12LocalVisitorE10getDerivedEv(ptr noundef nonnull align 1 dereferenceable(1) %8)
  %10 = load ptr, ptr %5, align 8
  %11 = call noundef zeroext i1 @_ZN5clang19RecursiveASTVisitorIZNK12_GLOBAL__N_125UncountedLocalVarsChecker12checkASTDeclEPKNS_19TranslationUnitDeclERNS_4ento15AnalysisManagerERNS6_11BugReporterEE12LocalVisitorE9VisitAttrEPNS_4AttrE(ptr noundef nonnull align 1 dereferenceable(1) %9, ptr noundef %10)
  br i1 %11, label %13, label %12

12:                                               ; preds = %2
  store i1 false, ptr %3, align 1
  br label %50

13:                                               ; preds = %2
  %14 = call noundef nonnull align 8 dereferenceable(32) ptr @_ZN5clang19RecursiveASTVisitorIZNK12_GLOBAL__N_125UncountedLocalVarsChecker12checkASTDeclEPKNS_19TranslationUnitDeclERNS_4ento15AnalysisManagerERNS6_11BugReporterEE12LocalVisitorE10getDerivedEv(ptr noundef nonnull align 1 dereferenceable(1) %8)
  %15 = load ptr, ptr %5, align 8
  %16 = call noundef zeroext i1 @_ZN5clang19RecursiveASTVisitorIZNK12_GLOBAL__N_125UncountedLocalVarsChecker12checkASTDeclEPKNS_19TranslationUnitDeclERNS_4ento15AnalysisManagerERNS6_11BugReporterEE12LocalVisitorE16VisitAlignedAttrEPNS_11AlignedAttrE(ptr noundef nonnull align 1 dereferenceable(1) %14, ptr noundef %15)
  br i1 %16, label %18, label %17

17:                                               ; preds = %13
  store i1 false, ptr %3, align 1
  br label %50

18:                                               ; preds = %13
  %19 = load ptr, ptr %5, align 8
  %20 = call noundef zeroext i1 @_ZNK5clang11AlignedAttr15isAlignmentExprEv(ptr noundef nonnull align 8 dereferenceable(56) %19)
  br i1 %20, label %21, label %28

21:                                               ; preds = %18
  %22 = call noundef nonnull align 8 dereferenceable(32) ptr @_ZN5clang19RecursiveASTVisitorIZNK12_GLOBAL__N_125UncountedLocalVarsChecker12checkASTDeclEPKNS_19TranslationUnitDeclERNS_4ento15AnalysisManagerERNS6_11BugReporterEE12LocalVisitorE10getDerivedEv(ptr noundef nonnull align 1 dereferenceable(1) %8)
  %23 = load ptr, ptr %5, align 8
  %24 = call noundef ptr @_ZNK5clang11AlignedAttr16getAlignmentExprEv(ptr noundef nonnull align 8 dereferenceable(56) %23)
  %25 = call noundef zeroext i1 @_ZN5clang19RecursiveASTVisitorIZNK12_GLOBAL__N_125UncountedLocalVarsChecker12checkASTDeclEPKNS_19TranslationUnitDeclERNS_4ento15AnalysisManagerERNS6_11BugReporterEE12LocalVisitorE12TraverseStmtEPNS_4StmtEPN4llvm15SmallVectorImplINSF_14PointerIntPairISE_Lj1EbNSF_21PointerLikeTypeTraitsISE_EENSF_18PointerIntPairInfoISE_Lj1ESJ_EEEEEE(ptr noundef nonnull align 1 dereferenceable(1) %22, ptr noundef %24, ptr noundef null)
  br i1 %25, label %27, label %26

26:                                               ; preds = %21
  store i1 false, ptr %3, align 1
  br label %50

27:                                               ; preds = %21
  br label %49

28:                                               ; preds = %18
  %29 = load ptr, ptr %5, align 8
  %30 = call noundef ptr @_ZNK5clang11AlignedAttr16getAlignmentTypeEv(ptr noundef nonnull align 8 dereferenceable(56) %29)
  store ptr %30, ptr %6, align 8
  %31 = load ptr, ptr %6, align 8
  %32 = icmp ne ptr %31, null
  br i1 %32, label %33, label %48

33:                                               ; preds = %28
  %34 = call noundef nonnull align 8 dereferenceable(32) ptr @_ZN5clang19RecursiveASTVisitorIZNK12_GLOBAL__N_125UncountedLocalVarsChecker12checkASTDeclEPKNS_19TranslationUnitDeclERNS_4ento15AnalysisManagerERNS6_11BugReporterEE12LocalVisitorE10getDerivedEv(ptr noundef nonnull align 1 dereferenceable(1) %8)
  %35 = load ptr, ptr %6, align 8
  %36 = call { ptr, ptr } @_ZNK5clang14TypeSourceInfo10getTypeLocEv(ptr noundef nonnull align 8 dereferenceable(8) %35)
  %37 = getelementptr inbounds nuw { ptr, ptr }, ptr %7, i32 0, i32 0
  %38 = extractvalue { ptr, ptr } %36, 0
  store ptr %38, ptr %37, align 8
  %39 = getelementptr inbounds nuw { ptr, ptr }, ptr %7, i32 0, i32 1
  %40 = extractvalue { ptr, ptr } %36, 1
  store ptr %40, ptr %39, align 8
  %41 = getelementptr inbounds nuw { ptr, ptr }, ptr %7, i32 0, i32 0
  %42 = load ptr, ptr %41, align 8
  %43 = getelementptr inbounds nuw { ptr, ptr }, ptr %7, i32 0, i32 1
  %44 = load ptr, ptr %43, align 8
  %45 = call noundef zeroext i1 @_ZN5clang19RecursiveASTVisitorIZNK12_GLOBAL__N_125UncountedLocalVarsChecker12checkASTDeclEPKNS_19TranslationUnitDeclERNS_4ento15AnalysisManagerERNS6_11BugReporterEE12LocalVisitorE15TraverseTypeLocENS_7TypeLocE(ptr noundef nonnull align 1 dereferenceable(1) %34, ptr %42, ptr %44)
  br i1 %45, label %47, label %46

46:                                               ; preds = %33
  store i1 false, ptr %3, align 1
  br label %50

47:                                               ; preds = %33
  br label %48

48:                                               ; preds = %47, %28
  br label %49

49:                                               ; preds = %48, %27
  store i1 true, ptr %3, align 1
  br label %50

50:                                               ; preds = %49, %46, %26, %17, %12
  %51 = load i1, ptr %3, align 1
  ret i1 %51
}